target datalayout = "e-m:e-p270:32:32-p271:32:32-p272:64:64-i64:64-i128:128-f80:128-n8:16:32:64-S128"
target triple = "x86_64-pc-linux-gnu"

%struct.expert_field = type { i32, i32 }
%struct._packet_info = type { ptr, ptr, i32, i32, %struct.nstime_t, %struct.nstime_t, %struct.nstime_t, i8, ptr, ptr, ptr, ptr, %struct._address, %struct._address, %struct._address, %struct._address, %struct._address, %struct._address, i32, ptr, i8, [3 x i8], %struct.anon, i32, i32, i32, i32, ptr, i8, ptr, ptr, i16, i16, i32, i32, i16, i32, i32, ptr, ptr, ptr, i8, i8, i16, i16, i16, i32, i16, i16, ptr, ptr, ptr, ptr, ptr, i32, i32 }
%struct.nstime_t = type { i64, i32 }
%struct._address = type { i32, i32, ptr, ptr }
%struct.anon = type { i8, [3 x i8] }

@hf_nas_eps_tsc = internal global i32 0, align 4
@hf_nas_eps_emm_nas_key_set_id = internal global i32 0, align 4
@ei_nas_eps_extraneous_data = internal global %struct.expert_field zeroinitializer, align 4
@hf_nas_eps_service_type = internal global i32 0, align 4
@ei_nas_eps_missing_mandatory_elemen = internal global %struct.expert_field zeroinitializer, align 4
@.str.959 = private unnamed_addr constant [62 x i8] c"Missing Mandatory element %s%s, rest of dissection is suspect\00", align 1
@.str.986 = private unnamed_addr constant [3 x i8] c"%s\00", align 1
@.str.1010 = private unnamed_addr constant [10 x i8] c" - M-TMSI\00", align 1

; Function Attrs: null_pointer_is_valid sspstrong uwtable
define internal void @de_emm_nas_key_set_id_bits(ptr noundef %0, ptr noundef %1, i32 noundef %2, ptr noundef %3) #1 {
  %5 = alloca ptr, align 8
  %6 = alloca ptr, align 8
  %7 = alloca i32, align 4
  %8 = alloca ptr, align 8
  %9 = alloca ptr, align 8
  store ptr %0, ptr %5, align 8
  store ptr %1, ptr %6, align 8
  store i32 %2, ptr %7, align 4
  store ptr %3, ptr %8, align 8
  call void @llvm.lifetime.start.p0(i64 8, ptr %9) #10
  %10 = load ptr, ptr %6, align 8
  %11 = load i32, ptr @hf_nas_eps_tsc, align 4
  %12 = load ptr, ptr %5, align 8
  %13 = load i32, ptr %7, align 4
  %14 = call ptr @proto_tree_add_bits_item(ptr noundef %10, i32 noundef %11, ptr noundef %12, i32 noundef %13, i32 noundef 1, i32 noundef 0)
  %15 = load i32, ptr %7, align 4
  %16 = add i32 %15, 1
  store i32 %16, ptr %7, align 4
  %17 = load ptr, ptr %6, align 8
  %18 = load i32, ptr @hf_nas_eps_emm_nas_key_set_id, align 4
  %19 = load ptr, ptr %5, align 8
  %20 = load i32, ptr %7, align 4
  %21 = call ptr @proto_tree_add_bits_item(ptr noundef %17, i32 noundef %18, ptr noundef %19, i32 noundef %20, i32 noundef 3, i32 noundef 0)
  store ptr %21, ptr %9, align 8
  %22 = load ptr, ptr %8, align 8
  %23 = icmp ne ptr %22, null
  br i1 %23, label %24, label %27

24:                                               ; preds = %4
  %25 = load ptr, ptr %9, align 8
  %26 = load ptr, ptr %8, align 8
  call void (ptr, ptr, ...) @proto_item_append_text(ptr noundef %25, ptr noundef @.str.986, ptr noundef %26)
  br label %27

27:                                               ; preds = %24, %4
  call void @llvm.lifetime.end.p0(i64 8, ptr %9) #10
  ret void
}

; Function Attrs: null_pointer_is_valid sspstrong uwtable
define internal void @nas_emm_ext_serv_req(ptr noundef %0, ptr noundef %1, ptr noundef %2, i32 noundef %3, i32 noundef %4) #1 {
  %6 = alloca ptr, align 8
  %7 = alloca ptr, align 8
  %8 = alloca ptr, align 8
  %9 = alloca i32, align 4
  %10 = alloca i32, align 4
  %11 = alloca i32, align 4
  %12 = alloca i32, align 4
  %13 = alloca i32, align 4
  %14 = alloca i32, align 4
  %15 = alloca i32, align 4
  store ptr %0, ptr %6, align 8
  store ptr %1, ptr %7, align 8
  store ptr %2, ptr %8, align 8
  store i32 %3, ptr %9, align 4
  store i32 %4, ptr %10, align 4
  call void @llvm.lifetime.start.p0(i64 4, ptr %11) #10
  call void @llvm.lifetime.start.p0(i64 4, ptr %12) #10
  call void @llvm.lifetime.start.p0(i64 4, ptr %13) #10
  call void @llvm.lifetime.start.p0(i64 4, ptr %14) #10
  %16 = load i32, ptr %9, align 4
  store i32 %16, ptr %11, align 4
  %17 = load i32, ptr %10, align 4
  store i32 %17, ptr %14, align 4
  %18 = load i32, ptr %11, align 4
  %19 = shl i32 %18, 3
  store i32 %19, ptr %12, align 4
  %20 = load ptr, ptr %8, align 8
  %21 = getelementptr inbounds nuw %struct._packet_info, ptr %20, i32 0, i32 46
  store i32 0, ptr %21, align 8
  %22 = load ptr, ptr %6, align 8
  %23 = load ptr, ptr %7, align 8
  %24 = load i32, ptr %12, align 4
  call void @de_emm_nas_key_set_id_bits(ptr noundef %22, ptr noundef %23, i32 noundef %24, ptr noundef null)
  %25 = load i32, ptr %12, align 4
  %26 = add i32 %25, 4
  store i32 %26, ptr %12, align 4
  %27 = load ptr, ptr %7, align 8
  %28 = load i32, ptr @hf_nas_eps_service_type, align 4
  %29 = load ptr, ptr %6, align 8
  %30 = load i32, ptr %12, align 4
  %31 = call ptr @proto_tree_add_bits_item(ptr noundef %27, i32 noundef %28, ptr noundef %29, i32 noundef %30, i32 noundef 4, i32 noundef 0)
  %32 = load i32, ptr %14, align 4
  %33 = add i32 %32, -1
  store i32 %33, ptr %14, align 4
  %34 = load i32, ptr %11, align 4
  %35 = add i32 %34, 1
  store i32 %35, ptr %11, align 4
  %36 = load i32, ptr %14, align 4
  %37 = icmp sgt i32 %36, 0
  br i1 %37, label %38, label %54

38:                                               ; preds = %5
  %39 = load ptr, ptr %6, align 8
  %40 = load ptr, ptr %7, align 8
  %41 = load ptr, ptr %8, align 8
  %42 = load i32, ptr %11, align 4
  %43 = load i32, ptr %14, align 4
  %44 = call zeroext i16 @elem_lv(ptr noundef %39, ptr noundef %40, ptr noundef %41, i32 noundef 9, i32 noundef 4, i32 noundef %42, i32 noundef %43, ptr noundef @.str.1010)
  %45 = zext i16 %44 to i32
  store i32 %45, ptr %13, align 4
  %46 = icmp ugt i32 %45, 0
  br i1 %46, label %47, label %54

47:                                               ; preds = %38
  %48 = load i32, ptr %13, align 4
  %49 = load i32, ptr %11, align 4
  %50 = add i32 %49, %48
  store i32 %50, ptr %11, align 4
  %51 = load i32, ptr %13, align 4
  %52 = load i32, ptr %14, align 4
  %53 = sub i32 %52, %51
  store i32 %53, ptr %14, align 4
  br label %61

54:                                               ; preds = %38, %5
  %55 = load ptr, ptr %7, align 8
  %56 = load ptr, ptr %8, align 8
  %57 = load ptr, ptr %6, align 8
  %58 = load i32, ptr %11, align 4
  %59 = call ptr @get_gsm_a_msg_string(i32 noundef 9, i32 noundef 4)
  %60 = call ptr (ptr, ptr, ptr, ptr, i32, i32, ptr, ...) @proto_tree_add_expert_format(ptr noundef %55, ptr noundef %56, ptr noundef @ei_nas_eps_missing_mandatory_elemen, ptr noundef %57, i32 noundef %58, i32 noundef 0, ptr noundef @.str.959, ptr noundef %59, ptr noundef @.str.1010)
  br label %61

61:                                               ; preds = %54, %47
  %62 = load i32, ptr %14, align 4
  %63 = icmp sle i32 %62, 0
  br i1 %63, label %64, label %65

64:                                               ; preds = %61
  store i32 1, ptr %15, align 4
  br label %175

65:                                               ; preds = %61
  %66 = load ptr, ptr %6, align 8
  %67 = load ptr, ptr %7, align 8
  %68 = load ptr, ptr %8, align 8
  %69 = load i32, ptr %11, align 4
  %70 = call zeroext i16 @elem_tv_short(ptr noundef %66, ptr noundef %67, ptr noundef %68, i8 noundef zeroext -80, i32 noundef 10, i32 noundef 7, i32 noundef %69, ptr noundef null)
  %71 = zext i16 %70 to i32
  store i32 %71, ptr %13, align 4
  %72 = icmp ugt i32 %71, 0
  br i1 %72, label %73, label %80

73:                                               ; preds = %65
  %74 = load i32, ptr %13, align 4
  %75 = load i32, ptr %11, align 4
  %76 = add i32 %75, %74
  store i32 %76, ptr %11, align 4
  %77 = load i32, ptr %13, align 4
  %78 = load i32, ptr %14, align 4
  %79 = sub i32 %78, %77
  store i32 %79, ptr %14, align 4
  br label %80

80:                                               ; preds = %73, %65
  %81 = load i32, ptr %14, align 4
  %82 = icmp sle i32 %81, 0
  br i1 %82, label %83, label %84

83:                                               ; preds = %80
  store i32 1, ptr %15, align 4
  br label %175

84:                                               ; preds = %80
  %85 = load ptr, ptr %6, align 8
  %86 = load ptr, ptr %7, align 8
  %87 = load ptr, ptr %8, align 8
  %88 = load i32, ptr %11, align 4
  %89 = load i32, ptr %14, align 4
  %90 = call zeroext i16 @elem_tlv(ptr noundef %85, ptr noundef %86, ptr noundef %87, i8 noundef zeroext 87, i32 noundef 9, i32 noundef 2, i32 noundef %88, i32 noundef %89, ptr noundef null)
  %91 = zext i16 %90 to i32
  store i32 %91, ptr %13, align 4
  %92 = icmp ugt i32 %91, 0
  br i1 %92, label %93, label %100

93:                                               ; preds = %84
  %94 = load i32, ptr %13, align 4
  %95 = load i32, ptr %11, align 4
  %96 = add i32 %95, %94
  store i32 %96, ptr %11, align 4
  %97 = load i32, ptr %13, align 4
  %98 = load i32, ptr %14, align 4
  %99 = sub i32 %98, %97
  store i32 %99, ptr %14, align 4
  br label %100

100:                                              ; preds = %93, %84
  %101 = load i32, ptr %14, align 4
  %102 = icmp sle i32 %101, 0
  br i1 %102, label %103, label %104

103:                                              ; preds = %100
  store i32 1, ptr %15, align 4
  br label %175

104:                                              ; preds = %100
  %105 = load ptr, ptr %6, align 8
  %106 = load ptr, ptr %7, align 8
  %107 = load ptr, ptr %8, align 8
  %108 = load i32, ptr %11, align 4
  %109 = call zeroext i16 @elem_tv_short(ptr noundef %105, ptr noundef %106, ptr noundef %107, i8 noundef zeroext -48, i32 noundef 5, i32 noundef 75, i32 noundef %108, ptr noundef null)
  %110 = zext i16 %109 to i32
  store i32 %110, ptr %13, align 4
  %111 = icmp ugt i32 %110, 0
  br i1 %111, label %112, label %119

112:                                              ; preds = %104
  %113 = load i32, ptr %13, align 4
  %114 = load i32, ptr %11, align 4
  %115 = add i32 %114, %113
  store i32 %115, ptr %11, align 4
  %116 = load i32, ptr %13, align 4
  %117 = load i32, ptr %14, align 4
  %118 = sub i32 %117, %116
  store i32 %118, ptr %14, align 4
  br label %119

119:                                              ; preds = %112, %104
  %120 = load i32, ptr %14, align 4
  %121 = icmp sle i32 %120, 0
  br i1 %121, label %122, label %123

122:                                              ; preds = %119
  store i32 1, ptr %15, align 4
  br label %175

123:                                              ; preds = %119
  %124 = load ptr, ptr %6, align 8
  %125 = load ptr, ptr %7, align 8
  %126 = load ptr, ptr %8, align 8
  %127 = load i32, ptr %11, align 4
  %128 = load i32, ptr %14, align 4
  %129 = call zeroext i16 @elem_tlv(ptr noundef %124, ptr noundef %125, ptr noundef %126, i8 noundef zeroext 41, i32 noundef 10, i32 noundef 74, i32 noundef %127, i32 noundef %128, ptr noundef null)
  %130 = zext i16 %129 to i32
  store i32 %130, ptr %13, align 4
  %131 = icmp ugt i32 %130, 0
  br i1 %131, label %132, label %139

132:                                              ; preds = %123
  %133 = load i32, ptr %13, align 4
  %134 = load i32, ptr %11, align 4
  %135 = add i32 %134, %133
  store i32 %135, ptr %11, align 4
  %136 = load i32, ptr %13, align 4
  %137 = load i32, ptr %14, align 4
  %138 = sub i32 %137, %136
  store i32 %138, ptr %14, align 4
  br label %139

139:                                              ; preds = %132, %123
  %140 = load i32, ptr %14, align 4
  %141 = icmp sle i32 %140, 0
  br i1 %141, label %142, label %143

142:                                              ; preds = %139
  store i32 1, ptr %15, align 4
  br label %175

143:                                              ; preds = %139
  %144 = load ptr, ptr %6, align 8
  %145 = load ptr, ptr %7, align 8
  %146 = load ptr, ptr %8, align 8
  %147 = load i32, ptr %11, align 4
  %148 = load i32, ptr %14, align 4
  %149 = call zeroext i16 @elem_tlv(ptr noundef %144, ptr noundef %145, ptr noundef %146, i8 noundef zeroext 87, i32 noundef 10, i32 noundef 75, i32 noundef %147, i32 noundef %148, ptr noundef null)
  %150 = zext i16 %149 to i32
  store i32 %150, ptr %13, align 4
  %151 = icmp ugt i32 %150, 0
  br i1 %151, label %152, label %159

152:                                              ; preds = %143
  %153 = load i32, ptr %13, align 4
  %154 = load i32, ptr %11, align 4
  %155 = add i32 %154, %153
  store i32 %155, ptr %11, align 4
  %156 = load i32, ptr %13, align 4
  %157 = load i32, ptr %14, align 4
  %158 = sub i32 %157, %156
  store i32 %158, ptr %14, align 4
  br label %159

159:                                              ; preds = %152, %143
  %160 = load i32, ptr %14, align 4
  %161 = icmp ugt i32 %160, 0
  br i1 %161, label %162, label %174

162:                                              ; preds = %159
  %163 = load ptr, ptr %7, align 8
  %164 = load ptr, ptr %8, align 8
  %165 = load ptr, ptr %6, align 8
  %166 = load i32, ptr %11, align 4
  %167 = load i32, ptr %14, align 4
  %168 = sub i32 %167, 0
  %169 = call ptr @proto_tree_add_expert(ptr noundef %163, ptr noundef %164, ptr noundef @ei_nas_eps_extraneous_data, ptr noundef %165, i32 noundef %166, i32 noundef %168)
  %170 = load i32, ptr %14, align 4
  %171 = sub i32 %170, 0
  %172 = load i32, ptr %11, align 4
  %173 = add i32 %172, %171
  store i32 %173, ptr %11, align 4
  br label %174

174:                                              ; preds = %162, %159
  store i32 0, ptr %15, align 4
  br label %175

175:                                              ; preds = %174, %142, %122, %103, %83, %64
  call void @llvm.lifetime.end.p0(i64 4, ptr %14) #10
  call void @llvm.lifetime.end.p0(i64 4, ptr %13) #10
  call void @llvm.lifetime.end.p0(i64 4, ptr %12) #10
  call void @llvm.lifetime.end.p0(i64 4, ptr %11) #10
  %176 = load i32, ptr %15, align 4
  switch i32 %176, label %178 [
    i32 0, label %177
    i32 1, label %177
  ]

177:                                              ; preds = %175, %175
  ret void

178:                                              ; preds = %175
  unreachable
}