; Function Attrs: null_pointer_is_valid sspstrong uwtable
define internal void @nas_emm_ext_serv_req(ptr noundef %0, ptr noundef %1, ptr noundef initializes((384, 388)) %2, i32 noundef %3, i32 noundef %4) #1 {
  %6 = shl i32 %3, 3
  %7 = getelementptr inbounds nuw i8, ptr %2, i64 384
  store i32 0, ptr %7, align 8
  %8 = load i32, ptr @hf_nas_eps_tsc, align 4
  %9 = tail call ptr @proto_tree_add_bits_item(ptr noundef %1, i32 noundef %8, ptr noundef %0, i32 noundef range(i32 0, -3) %6, i32 noundef 1, i32 noundef 0)
  %10 = or disjoint i32 %6, 1
  %11 = load i32, ptr @hf_nas_eps_emm_nas_key_set_id, align 4
  %12 = tail call ptr @proto_tree_add_bits_item(ptr noundef %1, i32 noundef %11, ptr noundef %0, i32 noundef %10, i32 noundef 3, i32 noundef 0)
  %13 = or disjoint i32 %6, 4
  %14 = load i32, ptr @hf_nas_eps_service_type, align 4
  %15 = tail call ptr @proto_tree_add_bits_item(ptr noundef %1, i32 noundef %14, ptr noundef %0, i32 noundef %13, i32 noundef 4, i32 noundef 0)
  %16 = add i32 %4, -1
  %17 = add i32 %3, 1
  %18 = icmp sgt i32 %16, 0
  br i1 %18, label %19, label %25

19:                                               ; preds = %5
  %20 = tail call zeroext i16 @elem_lv(ptr noundef %0, ptr noundef %1, ptr noundef %2, i32 noundef 9, i32 noundef 4, i32 noundef %17, i32 noundef %16, ptr noundef nonnull @.str.1010)
  %.not = icmp eq i16 %20, 0
  br i1 %.not, label %25, label %21

21:                                               ; preds = %19
  %22 = zext i16 %20 to i32
  %23 = add i32 %17, %22
  %24 = sub nsw i32 %16, %22
  br label %28

25:                                               ; preds = %19, %5
  %26 = tail call ptr @get_gsm_a_msg_string(i32 noundef 9, i32 noundef 4)
  %27 = tail call ptr (ptr, ptr, ptr, ptr, i32, i32, ptr, ...) @proto_tree_add_expert_format(ptr noundef %1, ptr noundef %2, ptr noundef nonnull @ei_nas_eps_missing_mandatory_elemen, ptr noundef %0, i32 noundef %17, i32 noundef 0, ptr noundef nonnull @.str.959, ptr noundef %26, ptr noundef nonnull @.str.1010)
  br label %28

28:                                               ; preds = %25, %21
  %.082 = phi i32 [ %23, %21 ], [ %17, %25 ]
  %.0 = phi i32 [ %24, %21 ], [ %16, %25 ]
  %29 = icmp slt i32 %.0, 1
  br i1 %29, label %61, label %30

30:                                               ; preds = %28
  %31 = tail call zeroext i16 @elem_tv_short(ptr noundef %0, ptr noundef %1, ptr noundef %2, i8 noundef zeroext -80, i32 noundef 10, i32 noundef 7, i32 noundef %.082, ptr noundef null)
  %32 = zext i16 %31 to i32
  %33 = sub nsw i32 %.0, %32
  %34 = icmp slt i32 %33, 1
  br i1 %34, label %61, label %35

35:                                               ; preds = %30
  %36 = add i32 %.082, %32
  %37 = tail call zeroext i16 @elem_tlv(ptr noundef %0, ptr noundef %1, ptr noundef %2, i8 noundef zeroext 87, i32 noundef 9, i32 noundef 2, i32 noundef %36, i32 noundef %33, ptr noundef null)
  %38 = zext i16 %37 to i32
  %39 = sub nsw i32 %33, %38
  %40 = icmp slt i32 %39, 1
  br i1 %40, label %61, label %41

41:                                               ; preds = %35
  %42 = add i32 %36, %38
  %43 = tail call zeroext i16 @elem_tv_short(ptr noundef %0, ptr noundef %1, ptr noundef %2, i8 noundef zeroext -48, i32 noundef 5, i32 noundef 75, i32 noundef %42, ptr noundef null)
  %44 = zext i16 %43 to i32
  %45 = sub nsw i32 %39, %44
  %46 = icmp slt i32 %45, 1
  br i1 %46, label %61, label %47

47:                                               ; preds = %41
  %48 = add i32 %42, %44
  %49 = tail call zeroext i16 @elem_tlv(ptr noundef %0, ptr noundef %1, ptr noundef %2, i8 noundef zeroext 41, i32 noundef 10, i32 noundef 74, i32 noundef %48, i32 noundef %45, ptr noundef null)
  %50 = zext i16 %49 to i32
  %51 = sub nsw i32 %45, %50
  %52 = icmp slt i32 %51, 1
  br i1 %52, label %61, label %53

53:                                               ; preds = %47
  %54 = add i32 %48, %50
  %55 = tail call zeroext i16 @elem_tlv(ptr noundef %0, ptr noundef %1, ptr noundef %2, i8 noundef zeroext 87, i32 noundef 10, i32 noundef 75, i32 noundef %54, i32 noundef %51, ptr noundef null)
  %56 = zext i16 %55 to i32
  %.not100 = icmp eq i32 %51, %56
  br i1 %.not100, label %61, label %57

57:                                               ; preds = %53
  %58 = sub nsw i32 %51, %56
  %59 = add i32 %54, %56
  %60 = tail call ptr @proto_tree_add_expert(ptr noundef %1, ptr noundef %2, ptr noundef nonnull @ei_nas_eps_extraneous_data, ptr noundef %0, i32 noundef %59, i32 noundef %58)
  br label %61

61:                                               ; preds = %53, %57, %47, %41, %35, %30, %28
  ret void
}